target datalayout = "e-m:e-p270:32:32-p271:32:32-p272:64:64-i64:64-i128:128-f80:128-n8:16:32:64-S128"
target triple = "x86_64-pc-linux-gnu"

%struct.Curl_cftype = type { ptr, i32, i32, ptr, ptr, ptr, ptr, ptr, ptr, ptr, ptr, ptr, ptr, ptr, ptr, ptr }
%struct.Curl_cfilter = type { ptr, ptr, ptr, ptr, i32, i8 }
%struct.curltime = type { i64, i32 }
%struct.cf_hc_ctx = type { i32, ptr, %struct.curltime, i32, %struct.cf_hc_baller, %struct.cf_hc_baller, i32, i32 }
%struct.cf_hc_baller = type { ptr, ptr, i32, %struct.curltime, i32, i8 }

; Function Attrs: nounwind uwtable
define internal zeroext i1 @cf_hc_baller_needs_flush(ptr noundef %0, ptr noundef %1) #0 {
  %3 = alloca ptr, align 8
  %4 = alloca ptr, align 8
  store ptr %0, ptr %3, align 8, !tbaa !119
  store ptr %1, ptr %4, align 8, !tbaa !9
  %5 = load ptr, ptr %3, align 8, !tbaa !119
  %6 = getelementptr inbounds nuw %struct.cf_hc_baller, ptr %5, i32 0, i32 1
  %7 = load ptr, ptr %6, align 8, !tbaa !121
  %8 = icmp ne ptr %7, null
  br i1 %8, label %9, label %20

9:                                                ; preds = %2
  %10 = load ptr, ptr %3, align 8, !tbaa !119
  %11 = getelementptr inbounds nuw %struct.cf_hc_baller, ptr %10, i32 0, i32 2
  %12 = load i32, ptr %11, align 8, !tbaa !123
  %13 = icmp ne i32 %12, 0
  br i1 %13, label %20, label %14

14:                                               ; preds = %9
  %15 = load ptr, ptr %3, align 8, !tbaa !119
  %16 = getelementptr inbounds nuw %struct.cf_hc_baller, ptr %15, i32 0, i32 1
  %17 = load ptr, ptr %16, align 8, !tbaa !121
  %18 = load ptr, ptr %4, align 8, !tbaa !9
  %19 = call zeroext i1 @Curl_conn_cf_needs_flush(ptr noundef %17, ptr noundef %18)
  br label %20

20:                                               ; preds = %14, %9, %2
  %21 = phi i1 [ false, %9 ], [ false, %2 ], [ %19, %14 ]
  ret i1 %21
}

; Function Attrs: nounwind uwtable
define internal i32 @cf_hc_query(ptr noundef %0, ptr noundef %1, i32 noundef %2, ptr noundef %3, ptr noundef %4) #0 {
  %6 = alloca i32, align 4
  %7 = alloca ptr, align 8
  %8 = alloca ptr, align 8
  %9 = alloca i32, align 4
  %10 = alloca ptr, align 8
  %11 = alloca ptr, align 8
  %12 = alloca ptr, align 8
  %13 = alloca ptr, align 8
  %14 = alloca %struct.curltime, align 8
  %15 = alloca i32, align 4
  %16 = alloca ptr, align 8
  %17 = alloca %struct.curltime, align 8
  store ptr %0, ptr %7, align 8, !tbaa !4
  store ptr %1, ptr %8, align 8, !tbaa !9
  store i32 %2, ptr %9, align 4, !tbaa !95
  store ptr %3, ptr %10, align 8, !tbaa !133
  store ptr %4, ptr %11, align 8, !tbaa !90
  call void @llvm.lifetime.start.p0(i64 8, ptr %12) #5
  %18 = load ptr, ptr %7, align 8, !tbaa !4
  %19 = getelementptr inbounds nuw %struct.Curl_cfilter, ptr %18, i32 0, i32 2
  %20 = load ptr, ptr %19, align 8, !tbaa !11
  store ptr %20, ptr %12, align 8, !tbaa !16
  %21 = load ptr, ptr %7, align 8, !tbaa !4
  %22 = getelementptr inbounds nuw %struct.Curl_cfilter, ptr %21, i32 0, i32 5
  %23 = load i8, ptr %22, align 4
  %24 = and i8 %23, 1
  %25 = zext i8 %24 to i32
  %26 = icmp ne i32 %25, 0
  br i1 %26, label %64, label %27

27:                                               ; preds = %5
  %28 = load i32, ptr %9, align 4, !tbaa !95
  switch i32 %28, label %62 [
    i32 4, label %29
    i32 5, label %39
    i32 7, label %49
  ]

29:                                               ; preds = %27
  call void @llvm.lifetime.start.p0(i64 8, ptr %13) #5
  %30 = load ptr, ptr %11, align 8, !tbaa !90
  store ptr %30, ptr %13, align 8, !tbaa !135
  %31 = load ptr, ptr %13, align 8, !tbaa !135
  call void @llvm.lifetime.start.p0(i64 16, ptr %14) #5
  %32 = load ptr, ptr %7, align 8, !tbaa !4
  %33 = load ptr, ptr %8, align 8, !tbaa !9
  %34 = call { i64, i32 } @cf_get_max_baller_time(ptr noundef %32, ptr noundef %33, i32 noundef 4)
  %35 = getelementptr inbounds nuw { i64, i32 }, ptr %14, i32 0, i32 0
  %36 = extractvalue { i64, i32 } %34, 0
  store i64 %36, ptr %35, align 8
  %37 = getelementptr inbounds nuw { i64, i32 }, ptr %14, i32 0, i32 1
  %38 = extractvalue { i64, i32 } %34, 1
  store i32 %38, ptr %37, align 8
  call void @llvm.memcpy.p0.p0.i64(ptr align 8 %31, ptr align 8 %14, i64 16, i1 false), !tbaa.struct !96
  call void @llvm.lifetime.end.p0(i64 16, ptr %14) #5
  store i32 0, ptr %6, align 4
  store i32 1, ptr %15, align 4
  call void @llvm.lifetime.end.p0(i64 8, ptr %13) #5
  br label %88

39:                                               ; preds = %27
  call void @llvm.lifetime.start.p0(i64 8, ptr %16) #5
  %40 = load ptr, ptr %11, align 8, !tbaa !90
  store ptr %40, ptr %16, align 8, !tbaa !135
  %41 = load ptr, ptr %16, align 8, !tbaa !135
  call void @llvm.lifetime.start.p0(i64 16, ptr %17) #5
  %42 = load ptr, ptr %7, align 8, !tbaa !4
  %43 = load ptr, ptr %8, align 8, !tbaa !9
  %44 = call { i64, i32 } @cf_get_max_baller_time(ptr noundef %42, ptr noundef %43, i32 noundef 5)
  %45 = getelementptr inbounds nuw { i64, i32 }, ptr %17, i32 0, i32 0
  %46 = extractvalue { i64, i32 } %44, 0
  store i64 %46, ptr %45, align 8
  %47 = getelementptr inbounds nuw { i64, i32 }, ptr %17, i32 0, i32 1
  %48 = extractvalue { i64, i32 } %44, 1
  store i32 %48, ptr %47, align 8
  call void @llvm.memcpy.p0.p0.i64(ptr align 8 %41, ptr align 8 %17, i64 16, i1 false), !tbaa.struct !96
  call void @llvm.lifetime.end.p0(i64 16, ptr %17) #5
  store i32 0, ptr %6, align 4
  store i32 1, ptr %15, align 4
  call void @llvm.lifetime.end.p0(i64 8, ptr %16) #5
  br label %88

49:                                               ; preds = %27
  %50 = load ptr, ptr %12, align 8, !tbaa !16
  %51 = getelementptr inbounds nuw %struct.cf_hc_ctx, ptr %50, i32 0, i32 4
  %52 = load ptr, ptr %8, align 8, !tbaa !9
  %53 = call zeroext i1 @cf_hc_baller_needs_flush(ptr noundef %51, ptr noundef %52)
  br i1 %53, label %59, label %54

54:                                               ; preds = %49
  %55 = load ptr, ptr %12, align 8, !tbaa !16
  %56 = getelementptr inbounds nuw %struct.cf_hc_ctx, ptr %55, i32 0, i32 5
  %57 = load ptr, ptr %8, align 8, !tbaa !9
  %58 = call zeroext i1 @cf_hc_baller_needs_flush(ptr noundef %56, ptr noundef %57)
  br i1 %58, label %59, label %61

59:                                               ; preds = %54, %49
  %60 = load ptr, ptr %10, align 8, !tbaa !133
  store i32 1, ptr %60, align 4, !tbaa !95
  store i32 0, ptr %6, align 4
  store i32 1, ptr %15, align 4
  br label %88

61:                                               ; preds = %54
  br label %63

62:                                               ; preds = %27
  br label %63

63:                                               ; preds = %62, %61
  br label %64

64:                                               ; preds = %63, %5
  %65 = load ptr, ptr %7, align 8, !tbaa !4
  %66 = getelementptr inbounds nuw %struct.Curl_cfilter, ptr %65, i32 0, i32 1
  %67 = load ptr, ptr %66, align 8, !tbaa !117
  %68 = icmp ne ptr %67, null
  br i1 %68, label %69, label %85

69:                                               ; preds = %64
  %70 = load ptr, ptr %7, align 8, !tbaa !4
  %71 = getelementptr inbounds nuw %struct.Curl_cfilter, ptr %70, i32 0, i32 1
  %72 = load ptr, ptr %71, align 8, !tbaa !117
  %73 = getelementptr inbounds nuw %struct.Curl_cfilter, ptr %72, i32 0, i32 0
  %74 = load ptr, ptr %73, align 8, !tbaa !87
  %75 = getelementptr inbounds nuw %struct.Curl_cftype, ptr %74, i32 0, i32 15
  %76 = load ptr, ptr %75, align 8, !tbaa !137
  %77 = load ptr, ptr %7, align 8, !tbaa !4
  %78 = getelementptr inbounds nuw %struct.Curl_cfilter, ptr %77, i32 0, i32 1
  %79 = load ptr, ptr %78, align 8, !tbaa !117
  %80 = load ptr, ptr %8, align 8, !tbaa !9
  %81 = load i32, ptr %9, align 4, !tbaa !95
  %82 = load ptr, ptr %10, align 8, !tbaa !133
  %83 = load ptr, ptr %11, align 8, !tbaa !90
  %84 = call i32 %76(ptr noundef %79, ptr noundef %80, i32 noundef %81, ptr noundef %82, ptr noundef %83)
  br label %86

85:                                               ; preds = %64
  br label %86

86:                                               ; preds = %85, %69
  %87 = phi i32 [ %84, %69 ], [ 48, %85 ]
  store i32 %87, ptr %6, align 4
  store i32 1, ptr %15, align 4
  br label %88

88:                                               ; preds = %86, %59, %39, %29
  call void @llvm.lifetime.end.p0(i64 8, ptr %12) #5
  %89 = load i32, ptr %6, align 4
  ret i32 %89
}