; Function Attrs: nounwind uwtable
define internal i32 @cf_hc_query(ptr noundef readonly captures(none) %0, ptr noundef %1, i32 noundef %2, ptr noundef %3, ptr noundef %4) #0 {
  %6 = getelementptr inbounds nuw i8, ptr %0, i64 16
  %7 = load ptr, ptr %6, align 8, !tbaa !4
  %8 = getelementptr inbounds nuw i8, ptr %0, i64 36
  %9 = load i8, ptr %8, align 4
  %10 = and i8 %9, 1
  %.not = icmp eq i8 %10, 0
  br i1 %.not, label %11, label %cf_hc_baller_needs_flush.exit31.thread

11:                                               ; preds = %5
  switch i32 %2, label %cf_hc_baller_needs_flush.exit31.thread [
    i32 4, label %12
    i32 5, label %16
    i32 7, label %20
  ]

12:                                               ; preds = %11
  %13 = tail call fastcc { i64, i32 } @cf_get_max_baller_time(ptr %7, ptr noundef %1, i32 noundef 4)
  %14 = extractvalue { i64, i32 } %13, 0
  %15 = extractvalue { i64, i32 } %13, 1
  store i64 %14, ptr %4, align 8, !tbaa !99
  %.sroa.42.0..sroa_idx = getelementptr inbounds nuw i8, ptr %4, i64 8
  store i32 %15, ptr %.sroa.42.0..sroa_idx, align 8, !tbaa !100
  br label %41

16:                                               ; preds = %11
  %17 = tail call fastcc { i64, i32 } @cf_get_max_baller_time(ptr %7, ptr noundef %1, i32 noundef 5)
  %18 = extractvalue { i64, i32 } %17, 0
  %19 = extractvalue { i64, i32 } %17, 1
  store i64 %18, ptr %4, align 8, !tbaa !99
  %.sroa.4.0..sroa_idx = getelementptr inbounds nuw i8, ptr %4, i64 8
  store i32 %19, ptr %.sroa.4.0..sroa_idx, align 8, !tbaa !100
  br label %41

20:                                               ; preds = %11
  %21 = getelementptr inbounds nuw i8, ptr %7, i64 48
  %22 = load ptr, ptr %21, align 8, !tbaa !86
  %.not.i = icmp eq ptr %22, null
  br i1 %.not.i, label %cf_hc_baller_needs_flush.exit.thread, label %23

23:                                               ; preds = %20
  %24 = getelementptr inbounds nuw i8, ptr %7, i64 56
  %25 = load i32, ptr %24, align 8, !tbaa !88
  %.not4.i = icmp eq i32 %25, 0
  br i1 %.not4.i, label %cf_hc_baller_needs_flush.exit, label %cf_hc_baller_needs_flush.exit.thread

cf_hc_baller_needs_flush.exit:                    ; preds = %23
  %26 = tail call zeroext i1 @Curl_conn_cf_needs_flush(ptr noundef nonnull %22, ptr noundef %1) #4
  br i1 %26, label %33, label %cf_hc_baller_needs_flush.exit.thread

cf_hc_baller_needs_flush.exit.thread:             ; preds = %20, %23, %cf_hc_baller_needs_flush.exit
  %27 = getelementptr inbounds nuw i8, ptr %7, i64 96
  %28 = load ptr, ptr %27, align 8, !tbaa !86
  %.not.i29 = icmp eq ptr %28, null
  br i1 %.not.i29, label %cf_hc_baller_needs_flush.exit31.thread, label %29

29:                                               ; preds = %cf_hc_baller_needs_flush.exit.thread
  %30 = getelementptr inbounds nuw i8, ptr %7, i64 104
  %31 = load i32, ptr %30, align 8, !tbaa !88
  %.not4.i30 = icmp eq i32 %31, 0
  br i1 %.not4.i30, label %cf_hc_baller_needs_flush.exit31, label %cf_hc_baller_needs_flush.exit31.thread

cf_hc_baller_needs_flush.exit31:                  ; preds = %29
  %32 = tail call zeroext i1 @Curl_conn_cf_needs_flush(ptr noundef nonnull %28, ptr noundef %1) #4
  br i1 %32, label %33, label %cf_hc_baller_needs_flush.exit31.thread

33:                                               ; preds = %cf_hc_baller_needs_flush.exit31, %cf_hc_baller_needs_flush.exit
  store i32 1, ptr %3, align 4, !tbaa !100
  br label %41

cf_hc_baller_needs_flush.exit31.thread:           ; preds = %cf_hc_baller_needs_flush.exit.thread, %29, %cf_hc_baller_needs_flush.exit31, %11, %5
  %34 = getelementptr inbounds nuw i8, ptr %0, i64 8
  %35 = load ptr, ptr %34, align 8, !tbaa !101
  %.not27 = icmp eq ptr %35, null
  br i1 %.not27, label %41, label %36

36:                                               ; preds = %cf_hc_baller_needs_flush.exit31.thread
  %37 = load ptr, ptr %35, align 8, !tbaa !83
  %38 = getelementptr inbounds nuw i8, ptr %37, i64 112
  %39 = load ptr, ptr %38, align 8, !tbaa !116
  %40 = tail call i32 %39(ptr noundef nonnull %35, ptr noundef %1, i32 noundef %2, ptr noundef %3, ptr noundef %4) #4
  br label %41

41:                                               ; preds = %36, %cf_hc_baller_needs_flush.exit31.thread, %33, %16, %12
  %.0 = phi i32 [ 0, %33 ], [ 0, %16 ], [ 0, %12 ], [ %40, %36 ], [ 48, %cf_hc_baller_needs_flush.exit31.thread ]
  ret i32 %.0
}